; Function Attrs: mustprogress nounwind uwtable
define hidden noundef ptr @_ZNK7TypePtr16speculative_typeEv(ptr nocapture noundef nonnull readonly align 8 dereferenceable(44) %0) unnamed_addr #0 align 2 {
  %2 = getelementptr inbounds i8, ptr %0, i64 24
  %3 = load ptr, ptr %2, align 8
  %.not = icmp eq ptr %3, null
  br i1 %.not, label %25, label %4

4:                                                ; preds = %1
  %5 = getelementptr inbounds i8, ptr %3, i64 16
  %6 = load i32, ptr %5, align 8
  %7 = add i32 %6, -23
  %or.cond.i = icmp ult i32 %7, -3
  br i1 %or.cond.i, label %25, label %8

8:                                                ; preds = %4
  %9 = getelementptr inbounds i8, ptr %3, i64 8
  %10 = load ptr, ptr %9, align 8
  %11 = getelementptr inbounds i8, ptr %0, i64 8
  %12 = load ptr, ptr %11, align 8
  %13 = tail call noundef ptr @_ZNK4Type11meet_helperEPKS_b(ptr noundef nonnull align 8 dereferenceable(20) %10, ptr noundef %12, i1 noundef zeroext false)
  %14 = getelementptr inbounds i8, ptr %13, i64 8
  %15 = load ptr, ptr %14, align 8
  %16 = load ptr, ptr %15, align 8
  %17 = getelementptr inbounds i8, ptr %16, i64 272
  %18 = load ptr, ptr %17, align 8
  %19 = tail call noundef zeroext i1 %18(ptr noundef nonnull align 8 dereferenceable(80) %15) #17
  br i1 %19, label %20, label %25

20:                                               ; preds = %8
  %21 = load ptr, ptr %15, align 8
  %22 = getelementptr inbounds i8, ptr %21, i64 224
  %23 = load ptr, ptr %22, align 8
  %24 = tail call noundef ptr %23(ptr noundef nonnull align 8 dereferenceable(80) %15) #17
  br label %25

25:                                               ; preds = %1, %4, %8, %20
  %.0 = phi ptr [ %24, %20 ], [ null, %8 ], [ null, %4 ], [ null, %1 ]
  ret ptr %.0
}